target datalayout = "e-m:e-p270:32:32-p271:32:32-p272:64:64-i64:64-i128:128-f80:128-n8:16:32:64-S128"
target triple = "x86_64-pc-linux-gnu"

@.str.9 = private unnamed_addr constant [31 x i8] c"../openssl/test/fake_rsaprov.c\00", align 1
@.str.27 = private unnamed_addr constant [27 x i8] c"newctx = OPENSSL_zalloc(1)\00", align 1

; Function Attrs: nounwind uwtable
define internal ptr @fake_rsa_sig_dupctx(ptr noundef %0) #0 {
  %2 = alloca ptr, align 8
  %3 = alloca ptr, align 8
  %4 = alloca ptr, align 8
  %5 = alloca ptr, align 8
  %6 = alloca i32, align 4
  store ptr %0, ptr %3, align 8, !tbaa !19
  call void @llvm.lifetime.start.p0(i64 8, ptr %4) #6
  %7 = load ptr, ptr %3, align 8, !tbaa !19
  store ptr %7, ptr %4, align 8, !tbaa !22
  call void @llvm.lifetime.start.p0(i64 8, ptr %5) #6
  %8 = load ptr, ptr %4, align 8, !tbaa !22
  %9 = load i8, ptr %8, align 1, !tbaa !30
  %10 = zext i8 %9 to i32
  %11 = and i32 %10, 160
  %12 = icmp ne i32 %11, 0
  br i1 %12, label %13, label %14

13:                                               ; preds = %1
  store ptr null, ptr %2, align 8
  store i32 1, ptr %6, align 4
  br label %24

14:                                               ; preds = %1
  %15 = call noalias ptr @CRYPTO_zalloc(i64 noundef 1, ptr noundef @.str.9, i32 noundef 369)
  store ptr %15, ptr %5, align 8, !tbaa !22
  %16 = call i32 @test_ptr(ptr noundef @.str.9, i32 noundef 369, ptr noundef @.str.27, ptr noundef %15)
  %17 = icmp ne i32 %16, 0
  br i1 %17, label %19, label %18

18:                                               ; preds = %14
  store ptr null, ptr %2, align 8
  store i32 1, ptr %6, align 4
  br label %24

19:                                               ; preds = %14
  %20 = load ptr, ptr %4, align 8, !tbaa !22
  %21 = load i8, ptr %20, align 1, !tbaa !30
  %22 = load ptr, ptr %5, align 8, !tbaa !22
  store i8 %21, ptr %22, align 1, !tbaa !30
  %23 = load ptr, ptr %5, align 8, !tbaa !22
  store ptr %23, ptr %2, align 8
  store i32 1, ptr %6, align 4
  br label %24

24:                                               ; preds = %19, %18, %13
  call void @llvm.lifetime.end.p0(i64 8, ptr %5) #6
  call void @llvm.lifetime.end.p0(i64 8, ptr %4) #6
  %25 = load ptr, ptr %2, align 8
  ret ptr %25
}