; Function Attrs: nounwind uwtable
define internal noundef ptr @fake_rsa_sig_dupctx(ptr noundef readonly captures(none) %0) #1 {
  %2 = load i8, ptr %0, align 1, !tbaa !14
  %3 = and i8 %2, -96
  %.not = icmp eq i8 %3, 0
  br i1 %.not, label %4, label %9

4:                                                ; preds = %1
  %5 = tail call noalias ptr @CRYPTO_zalloc(i64 noundef 1, ptr noundef nonnull @.str.9, i32 noundef 369) #12
  %6 = tail call i32 @test_ptr(ptr noundef nonnull @.str.9, i32 noundef 369, ptr noundef nonnull @.str.27, ptr noundef %5) #12
  %.not6 = icmp eq i32 %6, 0
  br i1 %.not6, label %9, label %7

7:                                                ; preds = %4
  %8 = load i8, ptr %0, align 1, !tbaa !14
  store i8 %8, ptr %5, align 1, !tbaa !14
  br label %9

9:                                                ; preds = %4, %1, %7
  %.0 = phi ptr [ %5, %7 ], [ null, %1 ], [ null, %4 ]
  ret ptr %.0
}